target datalayout = "e-m:e-p270:32:32-p271:32:32-p272:64:64-i64:64-i128:128-f80:128-n8:16:32:64-S128"
target triple = "x86_64-pc-linux-gnu"

%struct._object = type { %union.anon, ptr }
%union.anon = type { i64 }
%struct.PyASCIIObject = type { %struct._object, i64, i64, %struct.anon.0 }
%struct.anon.0 = type { i16, i16 }
%struct.PyCompactUnicodeObject = type { %struct.PyASCIIObject, i64, ptr }
%struct.PyUnicodeObject = type { %struct.PyCompactUnicodeObject, %union.anon.1 }
%union.anon.1 = type { ptr }

@_Py_ctype_table = external constant [256 x i32], align 16

; Function Attrs: inlinehint nounwind uwtable
define internal i32 @PyUnicode_IS_ASCII(ptr noundef %0) #2 {
  %2 = alloca ptr, align 8
  store ptr %0, ptr %2, align 8, !tbaa !8
  %3 = load ptr, ptr %2, align 8, !tbaa !8
  %4 = getelementptr inbounds nuw %struct.PyASCIIObject, ptr %3, i32 0, i32 3
  %5 = getelementptr inbounds nuw %struct.anon.0, ptr %4, i32 0, i32 1
  %6 = load i16, ptr %5, align 2
  %7 = lshr i16 %6, 4
  %8 = and i16 %7, 1
  %9 = zext i16 %8 to i32
  ret i32 %9
}

; Function Attrs: inlinehint nounwind uwtable
define internal ptr @_PyUnicode_NONCOMPACT_DATA(ptr noundef %0) #2 {
  %2 = alloca ptr, align 8
  %3 = alloca ptr, align 8
  store ptr %0, ptr %2, align 8, !tbaa !8
  call void @llvm.lifetime.start.p0(i64 8, ptr %3) #10
  %4 = load ptr, ptr %2, align 8, !tbaa !8
  %5 = getelementptr inbounds nuw %struct.PyUnicodeObject, ptr %4, i32 0, i32 1
  %6 = load ptr, ptr %5, align 8, !tbaa !27
  store ptr %6, ptr %3, align 8, !tbaa !4
  %7 = load ptr, ptr %3, align 8, !tbaa !4
  call void @llvm.lifetime.end.p0(i64 8, ptr %3) #10
  ret ptr %7
}

; Function Attrs: inlinehint nounwind uwtable
define internal ptr @_PyUnicode_COMPACT_DATA(ptr noundef %0) #2 {
  %2 = alloca ptr, align 8
  %3 = alloca ptr, align 8
  store ptr %0, ptr %3, align 8, !tbaa !8
  %4 = load ptr, ptr %3, align 8, !tbaa !8
  %5 = call i32 @PyUnicode_IS_ASCII(ptr noundef %4)
  %6 = icmp ne i32 %5, 0
  br i1 %6, label %7, label %10

7:                                                ; preds = %1
  %8 = load ptr, ptr %3, align 8, !tbaa !8
  %9 = getelementptr %struct.PyASCIIObject, ptr %8, i64 1
  store ptr %9, ptr %2, align 8
  br label %13

10:                                               ; preds = %1
  %11 = load ptr, ptr %3, align 8, !tbaa !8
  %12 = getelementptr %struct.PyCompactUnicodeObject, ptr %11, i64 1
  store ptr %12, ptr %2, align 8
  br label %13

13:                                               ; preds = %10, %7
  %14 = load ptr, ptr %2, align 8
  ret ptr %14
}

; Function Attrs: inlinehint nounwind uwtable
define internal i32 @PyUnicode_IS_COMPACT(ptr noundef %0) #2 {
  %2 = alloca ptr, align 8
  store ptr %0, ptr %2, align 8, !tbaa !8
  %3 = load ptr, ptr %2, align 8, !tbaa !8
  %4 = getelementptr inbounds nuw %struct.PyASCIIObject, ptr %3, i32 0, i32 3
  %5 = getelementptr inbounds nuw %struct.anon.0, ptr %4, i32 0, i32 1
  %6 = load i16, ptr %5, align 2
  %7 = lshr i16 %6, 3
  %8 = and i16 %7, 1
  %9 = zext i16 %8 to i32
  ret i32 %9
}

; Function Attrs: inlinehint nounwind uwtable
define internal i32 @PyUnicode_READ(i32 noundef %0, ptr noundef %1, i64 noundef %2) #2 {
  %4 = alloca i32, align 4
  %5 = alloca i32, align 4
  %6 = alloca ptr, align 8
  %7 = alloca i64, align 8
  store i32 %0, ptr %5, align 4, !tbaa !26
  store ptr %1, ptr %6, align 8, !tbaa !4
  store i64 %2, ptr %7, align 8, !tbaa !10
  %8 = load i32, ptr %5, align 4, !tbaa !26
  %9 = icmp eq i32 %8, 1
  br i1 %9, label %10, label %16

10:                                               ; preds = %3
  %11 = load ptr, ptr %6, align 8, !tbaa !4
  %12 = load i64, ptr %7, align 8, !tbaa !10
  %13 = getelementptr i8, ptr %11, i64 %12
  %14 = load i8, ptr %13, align 1, !tbaa !27
  %15 = zext i8 %14 to i32
  store i32 %15, ptr %4, align 4
  br label %30

16:                                               ; preds = %3
  %17 = load i32, ptr %5, align 4, !tbaa !26
  %18 = icmp eq i32 %17, 2
  br i1 %18, label %19, label %25

19:                                               ; preds = %16
  %20 = load ptr, ptr %6, align 8, !tbaa !4
  %21 = load i64, ptr %7, align 8, !tbaa !10
  %22 = getelementptr i16, ptr %20, i64 %21
  %23 = load i16, ptr %22, align 2, !tbaa !48
  %24 = zext i16 %23 to i32
  store i32 %24, ptr %4, align 4
  br label %30

25:                                               ; preds = %16
  %26 = load ptr, ptr %6, align 8, !tbaa !4
  %27 = load i64, ptr %7, align 8, !tbaa !10
  %28 = getelementptr i32, ptr %26, i64 %27
  %29 = load i32, ptr %28, align 4, !tbaa !26
  store i32 %29, ptr %4, align 4
  br label %30

30:                                               ; preds = %25, %19, %10
  %31 = load i32, ptr %4, align 4
  ret i32 %31
}

; Function Attrs: inlinehint nounwind uwtable
define internal ptr @_PyUnicode_DATA(ptr noundef %0) #2 {
  %2 = alloca ptr, align 8
  %3 = alloca ptr, align 8
  store ptr %0, ptr %3, align 8, !tbaa !8
  %4 = load ptr, ptr %3, align 8, !tbaa !8
  %5 = call i32 @PyUnicode_IS_COMPACT(ptr noundef %4)
  %6 = icmp ne i32 %5, 0
  br i1 %6, label %7, label %10

7:                                                ; preds = %1
  %8 = load ptr, ptr %3, align 8, !tbaa !8
  %9 = call ptr @_PyUnicode_COMPACT_DATA(ptr noundef %8)
  store ptr %9, ptr %2, align 8
  br label %13

10:                                               ; preds = %1
  %11 = load ptr, ptr %3, align 8, !tbaa !8
  %12 = call ptr @_PyUnicode_NONCOMPACT_DATA(ptr noundef %11)
  store ptr %12, ptr %2, align 8
  br label %13

13:                                               ; preds = %10, %7
  %14 = load ptr, ptr %2, align 8
  ret ptr %14
}

; Function Attrs: nounwind uwtable
define internal void @parse_number(ptr noundef %0, i64 noundef %1, i64 noundef %2, ptr noundef %3, ptr noundef %4) #0 {
  %6 = alloca ptr, align 8
  %7 = alloca i64, align 8
  %8 = alloca i64, align 8
  %9 = alloca ptr, align 8
  %10 = alloca ptr, align 8
  %11 = alloca i64, align 8
  %12 = alloca i32, align 4
  %13 = alloca ptr, align 8
  store ptr %0, ptr %6, align 8, !tbaa !8
  store i64 %1, ptr %7, align 8, !tbaa !10
  store i64 %2, ptr %8, align 8, !tbaa !10
  store ptr %3, ptr %9, align 8, !tbaa !49
  store ptr %4, ptr %10, align 8, !tbaa !65
  call void @llvm.lifetime.start.p0(i64 8, ptr %11) #10
  call void @llvm.lifetime.start.p0(i64 4, ptr %12) #10
  %14 = load ptr, ptr %6, align 8, !tbaa !8
  %15 = getelementptr inbounds nuw %struct.PyASCIIObject, ptr %14, i32 0, i32 3
  %16 = getelementptr inbounds nuw %struct.anon.0, ptr %15, i32 0, i32 1
  %17 = load i16, ptr %16, align 2
  %18 = and i16 %17, 7
  %19 = zext i16 %18 to i32
  store i32 %19, ptr %12, align 4, !tbaa !26
  call void @llvm.lifetime.start.p0(i64 8, ptr %13) #10
  %20 = load ptr, ptr %6, align 8, !tbaa !8
  %21 = call ptr @_PyUnicode_DATA(ptr noundef %20)
  store ptr %21, ptr %13, align 8, !tbaa !4
  br label %22

22:                                               ; preds = %40, %5
  %23 = load i64, ptr %7, align 8, !tbaa !10
  %24 = load i64, ptr %8, align 8, !tbaa !10
  %25 = icmp slt i64 %23, %24
  br i1 %25, label %26, label %38

26:                                               ; preds = %22
  %27 = load i32, ptr %12, align 4, !tbaa !26
  %28 = load ptr, ptr %13, align 8, !tbaa !4
  %29 = load i64, ptr %7, align 8, !tbaa !10
  %30 = call i32 @PyUnicode_READ(i32 noundef %27, ptr noundef %28, i64 noundef %29)
  %31 = and i32 %30, 255
  %32 = trunc i32 %31 to i8
  %33 = zext i8 %32 to i64
  %34 = getelementptr [256 x i32], ptr @_Py_ctype_table, i64 0, i64 %33
  %35 = load i32, ptr %34, align 4, !tbaa !26
  %36 = and i32 %35, 4
  %37 = icmp ne i32 %36, 0
  br label %38

38:                                               ; preds = %26, %22
  %39 = phi i1 [ false, %22 ], [ %37, %26 ]
  br i1 %39, label %40, label %43

40:                                               ; preds = %38
  %41 = load i64, ptr %7, align 8, !tbaa !10
  %42 = add i64 %41, 1
  store i64 %42, ptr %7, align 8, !tbaa !10
  br label %22, !llvm.loop !81

43:                                               ; preds = %38
  %44 = load i64, ptr %7, align 8, !tbaa !10
  store i64 %44, ptr %11, align 8, !tbaa !10
  %45 = load i64, ptr %7, align 8, !tbaa !10
  %46 = load i64, ptr %8, align 8, !tbaa !10
  %47 = icmp slt i64 %45, %46
  br i1 %47, label %48, label %54

48:                                               ; preds = %43
  %49 = load i32, ptr %12, align 4, !tbaa !26
  %50 = load ptr, ptr %13, align 8, !tbaa !4
  %51 = load i64, ptr %11, align 8, !tbaa !10
  %52 = call i32 @PyUnicode_READ(i32 noundef %49, ptr noundef %50, i64 noundef %51)
  %53 = icmp eq i32 %52, 46
  br label %54

54:                                               ; preds = %48, %43
  %55 = phi i1 [ false, %43 ], [ %53, %48 ]
  %56 = zext i1 %55 to i32
  %57 = load ptr, ptr %10, align 8, !tbaa !65
  store i32 %56, ptr %57, align 4, !tbaa !26
  %58 = load ptr, ptr %10, align 8, !tbaa !65
  %59 = load i32, ptr %58, align 4, !tbaa !26
  %60 = icmp ne i32 %59, 0
  br i1 %60, label %61, label %64

61:                                               ; preds = %54
  %62 = load i64, ptr %11, align 8, !tbaa !10
  %63 = add i64 %62, 1
  store i64 %63, ptr %11, align 8, !tbaa !10
  br label %64

64:                                               ; preds = %61, %54
  %65 = load i64, ptr %8, align 8, !tbaa !10
  %66 = load i64, ptr %11, align 8, !tbaa !10
  %67 = sub i64 %65, %66
  %68 = load ptr, ptr %9, align 8, !tbaa !49
  store i64 %67, ptr %68, align 8, !tbaa !10
  call void @llvm.lifetime.end.p0(i64 8, ptr %13) #10
  call void @llvm.lifetime.end.p0(i64 4, ptr %12) #10
  call void @llvm.lifetime.end.p0(i64 8, ptr %11) #10
  ret void
}