; Function Attrs: nofree norecurse nosync nounwind memory(read, argmem: readwrite, inaccessiblemem: none) uwtable
define internal fastcc void @parse_number(ptr noundef nonnull readonly captures(none) %0, i64 noundef range(i64 0, 2) %1, i64 noundef %2, ptr noundef nonnull writeonly captures(none) %3, ptr noundef nonnull writeonly captures(none) %4) unnamed_addr #7 {
  %6 = getelementptr inbounds nuw i8, ptr %0, i64 34
  %7 = load i16, ptr %6, align 2
  %8 = and i16 %7, 7
  %9 = and i16 %7, 8
  %.not.i = icmp eq i16 %9, 0
  br i1 %.not.i, label %12, label %10

10:                                               ; preds = %5
  %11 = and i16 %7, 16
  %.not.i.i = icmp eq i16 %11, 0
  %.0.v.i.i = select i1 %.not.i.i, i64 56, i64 40
  %.0.i.i = getelementptr i8, ptr %0, i64 %.0.v.i.i
  br label %_PyUnicode_DATA.exit

12:                                               ; preds = %5
  %13 = getelementptr i8, ptr %0, i64 56
  %.val4.i = load ptr, ptr %13, align 8, !tbaa !10
  br label %_PyUnicode_DATA.exit

_PyUnicode_DATA.exit:                             ; preds = %10, %12
  %.0.i = phi ptr [ %.0.i.i, %10 ], [ %.val4.i, %12 ]
  %14 = icmp slt i64 %1, %2
  br i1 %14, label %.lr.ph, label %.critedge20.thread

.lr.ph:                                           ; preds = %_PyUnicode_DATA.exit
  switch i16 %8, label %PyUnicode_READ.exit [
    i16 1, label %PyUnicode_READ.exit.us
    i16 2, label %PyUnicode_READ.exit.us30
  ]

PyUnicode_READ.exit.us:                           ; preds = %.lr.ph, %21
  %.026.us = phi i64 [ %22, %21 ], [ %1, %.lr.ph ]
  %15 = getelementptr i8, ptr %.0.i, i64 %.026.us
  %16 = load i8, ptr %15, align 1, !tbaa !10
  %17 = zext i8 %16 to i64
  %18 = getelementptr [256 x i32], ptr @_Py_ctype_table, i64 0, i64 %17
  %19 = load i32, ptr %18, align 4, !tbaa !43
  %20 = and i32 %19, 4
  %.not.us = icmp eq i32 %20, 0
  br i1 %.not.us, label %.critedge, label %21

21:                                               ; preds = %PyUnicode_READ.exit.us
  %22 = add nuw i64 %.026.us, 1
  %exitcond46.not = icmp eq i64 %22, %2
  br i1 %exitcond46.not, label %.critedge20.thread, label %PyUnicode_READ.exit.us, !llvm.loop !48

PyUnicode_READ.exit.us30:                         ; preds = %.lr.ph, %30
  %.026.us29 = phi i64 [ %31, %30 ], [ %1, %.lr.ph ]
  %23 = getelementptr i16, ptr %.0.i, i64 %.026.us29
  %24 = load i16, ptr %23, align 2, !tbaa !42
  %25 = and i16 %24, 255
  %26 = zext nneg i16 %25 to i64
  %27 = getelementptr [256 x i32], ptr @_Py_ctype_table, i64 0, i64 %26
  %28 = load i32, ptr %27, align 4, !tbaa !43
  %29 = and i32 %28, 4
  %.not.us32 = icmp eq i32 %29, 0
  br i1 %.not.us32, label %.critedge, label %30

30:                                               ; preds = %PyUnicode_READ.exit.us30
  %31 = add nuw i64 %.026.us29, 1
  %exitcond.not = icmp eq i64 %31, %2
  br i1 %exitcond.not, label %.critedge20.thread, label %PyUnicode_READ.exit.us30, !llvm.loop !48

.critedge20.thread:                               ; preds = %30, %21, %39, %_PyUnicode_DATA.exit
  %.0.lcssa = phi i64 [ %1, %_PyUnicode_DATA.exit ], [ %2, %39 ], [ %2, %21 ], [ %2, %30 ]
  store i32 0, ptr %4, align 4, !tbaa !43
  br label %55

PyUnicode_READ.exit:                              ; preds = %.lr.ph, %39
  %.026 = phi i64 [ %40, %39 ], [ %1, %.lr.ph ]
  %32 = getelementptr i32, ptr %.0.i, i64 %.026
  %33 = load i32, ptr %32, align 4, !tbaa !43
  %34 = and i32 %33, 255
  %35 = zext nneg i32 %34 to i64
  %36 = getelementptr [256 x i32], ptr @_Py_ctype_table, i64 0, i64 %35
  %37 = load i32, ptr %36, align 4, !tbaa !43
  %38 = and i32 %37, 4
  %.not = icmp eq i32 %38, 0
  br i1 %.not, label %.critedge, label %39

39:                                               ; preds = %PyUnicode_READ.exit
  %40 = add nuw i64 %.026, 1
  %exitcond47.not = icmp eq i64 %40, %2
  br i1 %exitcond47.not, label %.critedge20.thread, label %PyUnicode_READ.exit, !llvm.loop !48

.critedge:                                        ; preds = %PyUnicode_READ.exit.us30, %PyUnicode_READ.exit.us, %PyUnicode_READ.exit
  %.us-phi = phi i64 [ %.026, %PyUnicode_READ.exit ], [ %.026.us, %PyUnicode_READ.exit.us ], [ %.026.us29, %PyUnicode_READ.exit.us30 ]
  switch i16 %8, label %49 [
    i16 1, label %41
    i16 2, label %45
  ]

41:                                               ; preds = %.critedge
  %42 = getelementptr i8, ptr %.0.i, i64 %.us-phi
  %43 = load i8, ptr %42, align 1, !tbaa !10
  %44 = zext i8 %43 to i32
  br label %.critedge20

45:                                               ; preds = %.critedge
  %46 = getelementptr i16, ptr %.0.i, i64 %.us-phi
  %47 = load i16, ptr %46, align 2, !tbaa !42
  %48 = zext i16 %47 to i32
  br label %.critedge20

49:                                               ; preds = %.critedge
  %50 = getelementptr i32, ptr %.0.i, i64 %.us-phi
  %51 = load i32, ptr %50, align 4, !tbaa !43
  br label %.critedge20

.critedge20:                                      ; preds = %49, %45, %41
  %.0.i22 = phi i32 [ %44, %41 ], [ %48, %45 ], [ %51, %49 ]
  %.0.i22.fr = freeze i32 %.0.i22
  %52 = icmp eq i32 %.0.i22.fr, 46
  %53 = zext i1 %52 to i32
  store i32 %53, ptr %4, align 4, !tbaa !43
  %54 = zext i1 %52 to i64
  %spec.select = add nuw nsw i64 %.us-phi, %54
  br label %55

55:                                               ; preds = %.critedge20, %.critedge20.thread
  %56 = phi i64 [ %.0.lcssa, %.critedge20.thread ], [ %spec.select, %.critedge20 ]
  %57 = sub i64 %2, %56
  store i64 %57, ptr %3, align 8, !tbaa !39
  ret void
}